target datalayout = "e-m:e-p270:32:32-p271:32:32-p272:64:64-i64:64-i128:128-f80:128-n8:16:32:64-S128"
target triple = "x86_64-unknown-linux-gnu"

%"class.std::__exception_ptr::exception_ptr" = type { ptr }

@__dso_handle = external hidden global i8
@_ZZN8facebook5velox9functions22negativeSubscriptErrorEvE5error = internal global %"class.std::__exception_ptr::exception_ptr" zeroinitializer, align 8
@_ZGVZN8facebook5velox9functions22negativeSubscriptErrorEvE5error = internal global i64 0, align 8

; Function Attrs: mustprogress nounwind uwtable
define internal void @_ZN8facebook5velox9functions12_GLOBAL__N_126makeNegativeSubscriptErrorEv(ptr noalias sret(%"class.std::__exception_ptr::exception_ptr") align 8 %agg.result) #1 {
entry:
  %result.ptr = alloca ptr, align 8
  store ptr %agg.result, ptr %result.ptr, align 8
  call void @llvm.trap()
  call void @llvm.trap()
  unreachable
}

; Function Attrs: mustprogress uwtable
define noundef nonnull align 8 dereferenceable(8) ptr @_ZN8facebook5velox9functions22negativeSubscriptErrorEv() #0 personality ptr @__gxx_personality_v0 {
entry:
  %exn.slot = alloca ptr, align 8
  %ehselector.slot = alloca i32, align 4
  %0 = load atomic i8, ptr @_ZGVZN8facebook5velox9functions22negativeSubscriptErrorEvE5error acquire, align 8
  %guard.uninitialized = icmp eq i8 %0, 0
  br i1 %guard.uninitialized, label %init.check, label %init.end, !prof !4

init.check:                                       ; preds = %entry
  %1 = call i32 @__cxa_guard_acquire(ptr @_ZGVZN8facebook5velox9functions22negativeSubscriptErrorEvE5error) #3
  %tobool = icmp ne i32 %1, 0
  br i1 %tobool, label %init, label %init.end

init:                                             ; preds = %init.check
  invoke void @_ZN8facebook5velox9functions12_GLOBAL__N_126makeNegativeSubscriptErrorEv(ptr sret(%"class.std::__exception_ptr::exception_ptr") align 8 @_ZZN8facebook5velox9functions22negativeSubscriptErrorEvE5error)
          to label %invoke.cont unwind label %lpad

invoke.cont:                                      ; preds = %init
  %2 = call i32 @__cxa_atexit(ptr @_ZNSt15__exception_ptr13exception_ptrD2Ev, ptr @_ZZN8facebook5velox9functions22negativeSubscriptErrorEvE5error, ptr @__dso_handle) #3
  call void @__cxa_guard_release(ptr @_ZGVZN8facebook5velox9functions22negativeSubscriptErrorEvE5error) #3
  br label %init.end

init.end:                                         ; preds = %invoke.cont, %init.check, %entry
  ret ptr @_ZZN8facebook5velox9functions22negativeSubscriptErrorEvE5error

lpad:                                             ; preds = %init
  %3 = landingpad { ptr, i32 }
          cleanup
  %4 = extractvalue { ptr, i32 } %3, 0
  store ptr %4, ptr %exn.slot, align 8
  %5 = extractvalue { ptr, i32 } %3, 1
  store i32 %5, ptr %ehselector.slot, align 4
  call void @__cxa_guard_abort(ptr @_ZGVZN8facebook5velox9functions22negativeSubscriptErrorEvE5error) #3
  br label %eh.resume

eh.resume:                                        ; preds = %lpad
  %exn = load ptr, ptr %exn.slot, align 8
  %sel = load i32, ptr %ehselector.slot, align 4
  %lpad.val = insertvalue { ptr, i32 } poison, ptr %exn, 0
  %lpad.val1 = insertvalue { ptr, i32 } %lpad.val, i32 %sel, 1
  resume { ptr, i32 } %lpad.val1
}